; Function Attrs: mustprogress null_pointer_is_valid sspstrong uwtable
define void @_ZN10ExtArgText5valueEv(ptr dead_on_unwind noalias writable sret(%class.QString) align 8 %0, ptr noundef readonly align 8 captures(none) dereferenceable_or_null(96) %1) unnamed_addr #0 align 2 {
  %3 = getelementptr inbounds nuw i8, ptr %1, i64 88
  %4 = load ptr, ptr %3, align 8
  %5 = icmp eq ptr %4, null
  br i1 %5, label %6, label %7

6:                                                ; preds = %2
  tail call void @llvm.memset.p0.i64(ptr noundef align 8 dereferenceable(24) dereferenceable_or_null(24) %0, i8 0, i64 24, i1 false)
  br label %8

7:                                                ; preds = %2
  tail call void @_ZNK9QLineEdit4textEv(ptr dead_on_unwind writable sret(%class.QString) align 8 %0, ptr noundef nonnull align 8 dereferenceable_or_null(40) %4)
  br label %8

8:                                                ; preds = %7, %6
  ret void
}